target datalayout = "e-m:e-p270:32:32-p271:32:32-p272:64:64-i64:64-i128:128-f80:128-n8:16:32:64-S128"
target triple = "x86_64-pc-linux-gnu"

%struct.rusage = type { %struct.timeval, %struct.timeval, %union.anon, %union.anon.0, %union.anon.1, %union.anon.2, %union.anon.3, %union.anon.4, %union.anon.5, %union.anon.6, %union.anon.7, %union.anon.8, %union.anon.9, %union.anon.10, %union.anon.11, %union.anon.12 }
%struct.timeval = type { i64, i64 }
%union.anon = type { i64 }
%union.anon.0 = type { i64 }
%union.anon.1 = type { i64 }
%union.anon.2 = type { i64 }
%union.anon.3 = type { i64 }
%union.anon.4 = type { i64 }
%union.anon.5 = type { i64 }
%union.anon.6 = type { i64 }
%union.anon.7 = type { i64 }
%union.anon.8 = type { i64 }
%union.anon.9 = type { i64 }
%union.anon.10 = type { i64 }
%union.anon.11 = type { i64 }
%union.anon.12 = type { i64 }
%union.ListCell = type { ptr }
%struct.Query = type { i32, i32, i32, i64, i8, ptr, i32, i8, i8, i8, i8, i8, i8, i8, i8, i8, i8, i8, ptr, ptr, ptr, ptr, ptr, i32, ptr, ptr, i32, ptr, ptr, ptr, ptr, ptr, i8, ptr, ptr, ptr, ptr, ptr, ptr, ptr, i32, ptr, ptr, ptr, ptr, i32, i32 }
%struct.ForEachState = type { ptr, i32 }
%struct.List = type { i32, i32, i32, ptr, [0 x %union.ListCell] }
%struct.PlannedStmt = type { i32, i32, i64, i8, i8, i8, i8, i8, i8, i32, ptr, ptr, ptr, ptr, ptr, ptr, ptr, ptr, ptr, ptr, ptr, ptr, ptr, ptr, i32, i32 }
%struct.Node = type { i32 }

@Debug_pretty_print = external global i8, align 1
@log_planner_stats = external global i8, align 1
@.str.7 = private unnamed_addr constant [19 x i8] c"PLANNER STATISTICS\00", align 1
@Debug_print_plan = external global i8, align 1
@.str.8 = private unnamed_addr constant [5 x i8] c"plan\00", align 1
@Save_r = internal global %struct.rusage zeroinitializer, align 8
@Save_t = internal global %struct.timeval zeroinitializer, align 8

; Function Attrs: nounwind uwtable
define dso_local void @ResetUsage() #0 {
  %1 = call i32 @getrusage(i32 noundef 0, ptr noundef @Save_r) #16
  %2 = call i32 @gettimeofday(ptr noundef @Save_t, ptr noundef null) #16
  ret void
}

; Function Attrs: nounwind uwtable
define dso_local ptr @pg_plan_query(ptr noundef %0, ptr noundef %1, i32 noundef %2, ptr noundef %3) #0 {
  %5 = alloca ptr, align 8
  %6 = alloca ptr, align 8
  %7 = alloca ptr, align 8
  %8 = alloca i32, align 4
  %9 = alloca ptr, align 8
  %10 = alloca ptr, align 8
  %11 = alloca i32, align 4
  store ptr %0, ptr %6, align 8
  store ptr %1, ptr %7, align 8
  store i32 %2, ptr %8, align 4
  store ptr %3, ptr %9, align 8
  call void @llvm.lifetime.start.p0(i64 8, ptr %10) #16
  %12 = load ptr, ptr %6, align 8
  %13 = getelementptr inbounds nuw %struct.Query, ptr %12, i32 0, i32 1
  %14 = load i32, ptr %13, align 4
  %15 = icmp eq i32 %14, 6
  br i1 %15, label %16, label %17

16:                                               ; preds = %4
  store ptr null, ptr %5, align 8
  store i32 1, ptr %11, align 4
  br label %45

17:                                               ; preds = %4
  br label %18

18:                                               ; preds = %17
  br label %19

19:                                               ; preds = %18
  br label %20

20:                                               ; preds = %19
  %21 = load i8, ptr @log_planner_stats, align 1, !range !4, !noundef !5
  %22 = trunc i8 %21 to i1
  br i1 %22, label %23, label %24

23:                                               ; preds = %20
  call void @ResetUsage()
  br label %24

24:                                               ; preds = %23, %20
  %25 = load ptr, ptr %6, align 8
  %26 = load ptr, ptr %7, align 8
  %27 = load i32, ptr %8, align 4
  %28 = load ptr, ptr %9, align 8
  %29 = call ptr @planner(ptr noundef %25, ptr noundef %26, i32 noundef %27, ptr noundef %28)
  store ptr %29, ptr %10, align 8
  %30 = load i8, ptr @log_planner_stats, align 1, !range !4, !noundef !5
  %31 = trunc i8 %30 to i1
  br i1 %31, label %32, label %33

32:                                               ; preds = %24
  call void @ShowUsage(ptr noundef @.str.7)
  br label %33

33:                                               ; preds = %32, %24
  %34 = load i8, ptr @Debug_print_plan, align 1, !range !4, !noundef !5
  %35 = trunc i8 %34 to i1
  br i1 %35, label %36, label %40

36:                                               ; preds = %33
  %37 = load ptr, ptr %10, align 8
  %38 = load i8, ptr @Debug_pretty_print, align 1, !range !4, !noundef !5
  %39 = trunc i8 %38 to i1
  call void @elog_node_display(i32 noundef 15, ptr noundef @.str.8, ptr noundef %37, i1 noundef zeroext %39)
  br label %40

40:                                               ; preds = %36, %33
  br label %41

41:                                               ; preds = %40
  br label %42

42:                                               ; preds = %41
  br label %43

43:                                               ; preds = %42
  %44 = load ptr, ptr %10, align 8
  store ptr %44, ptr %5, align 8
  store i32 1, ptr %11, align 4
  br label %45

45:                                               ; preds = %43, %16
  call void @llvm.lifetime.end.p0(i64 8, ptr %10) #16
  %46 = load ptr, ptr %5, align 8
  ret ptr %46
}

; Function Attrs: inlinehint nounwind uwtable
define internal ptr @newNode(i64 noundef %0, i32 noundef %1) #7 {
  %3 = alloca i64, align 8
  %4 = alloca i32, align 4
  %5 = alloca ptr, align 8
  store i64 %0, ptr %3, align 8
  store i32 %1, ptr %4, align 4
  call void @llvm.lifetime.start.p0(i64 8, ptr %5) #16
  %6 = load i64, ptr %3, align 8
  %7 = call ptr @palloc0(i64 noundef %6)
  store ptr %7, ptr %5, align 8
  %8 = load i32, ptr %4, align 4
  %9 = load ptr, ptr %5, align 8
  %10 = getelementptr inbounds nuw %struct.Node, ptr %9, i32 0, i32 0
  store i32 %8, ptr %10, align 4
  %11 = load ptr, ptr %5, align 8
  call void @llvm.lifetime.end.p0(i64 8, ptr %5) #16
  ret ptr %11
}

; Function Attrs: nounwind uwtable
define dso_local ptr @pg_plan_queries(ptr noundef %0, ptr noundef %1, i32 noundef %2, ptr noundef %3) #0 {
  %5 = alloca ptr, align 8
  %6 = alloca ptr, align 8
  %7 = alloca i32, align 4
  %8 = alloca ptr, align 8
  %9 = alloca ptr, align 8
  %10 = alloca ptr, align 8
  %11 = alloca %struct.ForEachState, align 8
  %12 = alloca ptr, align 8
  %13 = alloca ptr, align 8
  store ptr %0, ptr %5, align 8
  store ptr %1, ptr %6, align 8
  store i32 %2, ptr %7, align 4
  store ptr %3, ptr %8, align 8
  call void @llvm.lifetime.start.p0(i64 8, ptr %9) #16
  store ptr null, ptr %9, align 8
  call void @llvm.lifetime.start.p0(i64 8, ptr %10) #16
  call void @llvm.lifetime.start.p0(i64 16, ptr %11) #16
  %14 = getelementptr inbounds nuw %struct.ForEachState, ptr %11, i32 0, i32 0
  %15 = load ptr, ptr %5, align 8
  store ptr %15, ptr %14, align 8
  %16 = getelementptr inbounds nuw %struct.ForEachState, ptr %11, i32 0, i32 1
  store i32 0, ptr %16, align 8
  %17 = getelementptr i8, ptr %11, i64 12
  call void @llvm.memset.p0.i64(ptr align 4 %17, i8 0, i64 4, i1 false)
  br label %18

18:                                               ; preds = %92, %4
  %19 = getelementptr inbounds nuw %struct.ForEachState, ptr %11, i32 0, i32 0
  %20 = load ptr, ptr %19, align 8
  %21 = icmp ne ptr %20, null
  br i1 %21, label %22, label %39

22:                                               ; preds = %18
  %23 = getelementptr inbounds nuw %struct.ForEachState, ptr %11, i32 0, i32 1
  %24 = load i32, ptr %23, align 8
  %25 = getelementptr inbounds nuw %struct.ForEachState, ptr %11, i32 0, i32 0
  %26 = load ptr, ptr %25, align 8
  %27 = getelementptr inbounds nuw %struct.List, ptr %26, i32 0, i32 1
  %28 = load i32, ptr %27, align 4
  %29 = icmp slt i32 %24, %28
  br i1 %29, label %30, label %39

30:                                               ; preds = %22
  %31 = getelementptr inbounds nuw %struct.ForEachState, ptr %11, i32 0, i32 0
  %32 = load ptr, ptr %31, align 8
  %33 = getelementptr inbounds nuw %struct.List, ptr %32, i32 0, i32 3
  %34 = load ptr, ptr %33, align 8
  %35 = getelementptr inbounds nuw %struct.ForEachState, ptr %11, i32 0, i32 1
  %36 = load i32, ptr %35, align 8
  %37 = sext i32 %36 to i64
  %38 = getelementptr inbounds %union.ListCell, ptr %34, i64 %37
  store ptr %38, ptr %10, align 8
  br label %40

39:                                               ; preds = %22, %18
  store ptr null, ptr %10, align 8
  br label %40

40:                                               ; preds = %39, %30
  %41 = phi i32 [ 1, %30 ], [ 0, %39 ]
  %42 = icmp ne i32 %41, 0
  br i1 %42, label %44, label %43

43:                                               ; preds = %40
  call void @llvm.lifetime.end.p0(i64 16, ptr %11) #16
  br label %96

44:                                               ; preds = %40
  call void @llvm.lifetime.start.p0(i64 8, ptr %12) #16
  %45 = load ptr, ptr %10, align 8
  %46 = load ptr, ptr %45, align 8
  store ptr %46, ptr %12, align 8
  call void @llvm.lifetime.start.p0(i64 8, ptr %13) #16
  %47 = load ptr, ptr %12, align 8
  %48 = getelementptr inbounds nuw %struct.Query, ptr %47, i32 0, i32 1
  %49 = load i32, ptr %48, align 4
  %50 = icmp eq i32 %49, 6
  br i1 %50, label %51, label %82

51:                                               ; preds = %44
  %52 = call ptr @newNode(i64 noundef 152, i32 noundef 329)
  store ptr %52, ptr %13, align 8
  %53 = load ptr, ptr %13, align 8
  %54 = getelementptr inbounds nuw %struct.PlannedStmt, ptr %53, i32 0, i32 1
  store i32 6, ptr %54, align 4
  %55 = load ptr, ptr %12, align 8
  %56 = getelementptr inbounds nuw %struct.Query, ptr %55, i32 0, i32 4
  %57 = load i8, ptr %56, align 8, !range !4, !noundef !5
  %58 = trunc i8 %57 to i1
  %59 = load ptr, ptr %13, align 8
  %60 = getelementptr inbounds nuw %struct.PlannedStmt, ptr %59, i32 0, i32 5
  %61 = zext i1 %58 to i8
  store i8 %61, ptr %60, align 2
  %62 = load ptr, ptr %12, align 8
  %63 = getelementptr inbounds nuw %struct.Query, ptr %62, i32 0, i32 5
  %64 = load ptr, ptr %63, align 8
  %65 = load ptr, ptr %13, align 8
  %66 = getelementptr inbounds nuw %struct.PlannedStmt, ptr %65, i32 0, i32 23
  store ptr %64, ptr %66, align 8
  %67 = load ptr, ptr %12, align 8
  %68 = getelementptr inbounds nuw %struct.Query, ptr %67, i32 0, i32 45
  %69 = load i32, ptr %68, align 8
  %70 = load ptr, ptr %13, align 8
  %71 = getelementptr inbounds nuw %struct.PlannedStmt, ptr %70, i32 0, i32 24
  store i32 %69, ptr %71, align 8
  %72 = load ptr, ptr %12, align 8
  %73 = getelementptr inbounds nuw %struct.Query, ptr %72, i32 0, i32 46
  %74 = load i32, ptr %73, align 4
  %75 = load ptr, ptr %13, align 8
  %76 = getelementptr inbounds nuw %struct.PlannedStmt, ptr %75, i32 0, i32 25
  store i32 %74, ptr %76, align 4
  %77 = load ptr, ptr %12, align 8
  %78 = getelementptr inbounds nuw %struct.Query, ptr %77, i32 0, i32 3
  %79 = load i64, ptr %78, align 8
  %80 = load ptr, ptr %13, align 8
  %81 = getelementptr inbounds nuw %struct.PlannedStmt, ptr %80, i32 0, i32 2
  store i64 %79, ptr %81, align 8
  br label %88

82:                                               ; preds = %44
  %83 = load ptr, ptr %12, align 8
  %84 = load ptr, ptr %6, align 8
  %85 = load i32, ptr %7, align 4
  %86 = load ptr, ptr %8, align 8
  %87 = call ptr @pg_plan_query(ptr noundef %83, ptr noundef %84, i32 noundef %85, ptr noundef %86)
  store ptr %87, ptr %13, align 8
  br label %88

88:                                               ; preds = %82, %51
  %89 = load ptr, ptr %9, align 8
  %90 = load ptr, ptr %13, align 8
  %91 = call ptr @lappend(ptr noundef %89, ptr noundef %90)
  store ptr %91, ptr %9, align 8
  call void @llvm.lifetime.end.p0(i64 8, ptr %13) #16
  call void @llvm.lifetime.end.p0(i64 8, ptr %12) #16
  br label %92

92:                                               ; preds = %88
  %93 = getelementptr inbounds nuw %struct.ForEachState, ptr %11, i32 0, i32 1
  %94 = load i32, ptr %93, align 8
  %95 = add i32 %94, 1
  store i32 %95, ptr %93, align 8
  br label %18, !llvm.loop !8

96:                                               ; preds = %43
  %97 = load ptr, ptr %9, align 8
  call void @llvm.lifetime.end.p0(i64 8, ptr %10) #16
  call void @llvm.lifetime.end.p0(i64 8, ptr %9) #16
  ret ptr %97
}