; Function Attrs: nounwind uwtable
define dso_local ptr @pg_plan_queries(ptr noundef readonly captures(address_is_null) %0, ptr noundef %1, i32 noundef %2, ptr noundef %3) local_unnamed_addr #0 {
  %5 = getelementptr inbounds nuw i8, ptr %0, i64 4
  %.not = icmp eq ptr %0, null
  br i1 %.not, label %._crit_edge, label %.lr.ph

.lr.ph:                                           ; preds = %4
  %6 = getelementptr inbounds nuw i8, ptr %0, i64 16
  %7 = load i32, ptr %5, align 4
  %8 = icmp sgt i32 %7, 0
  br i1 %8, label %.lr.ph37, label %._crit_edge

._crit_edge:                                      ; preds = %pg_plan_query.exit, %.lr.ph, %4
  %.024.lcssa = phi ptr [ null, %4 ], [ null, %.lr.ph ], [ %50, %pg_plan_query.exit ]
  ret ptr %.024.lcssa

.lr.ph37:                                         ; preds = %.lr.ph, %pg_plan_query.exit
  %.0243136 = phi ptr [ %50, %pg_plan_query.exit ], [ null, %.lr.ph ]
  %indvars.iv35 = phi i64 [ %indvars.iv.next, %pg_plan_query.exit ], [ 0, %.lr.ph ]
  %9 = load ptr, ptr %6, align 8
  %10 = getelementptr inbounds nuw %union.ListCell, ptr %9, i64 %indvars.iv35
  %11 = load ptr, ptr %10, align 8
  %12 = getelementptr inbounds nuw i8, ptr %11, i64 4
  %13 = load i32, ptr %12, align 4
  %14 = icmp eq i32 %13, 6
  br i1 %14, label %15, label %33

15:                                               ; preds = %.lr.ph37
  %16 = tail call noundef ptr @palloc0(i64 noundef 152) #22
  store i32 329, ptr %16, align 4
  %17 = getelementptr inbounds nuw i8, ptr %16, i64 4
  store i32 6, ptr %17, align 4
  %18 = getelementptr inbounds nuw i8, ptr %11, i64 24
  %19 = load i8, ptr %18, align 8, !range !5, !noundef !6
  %20 = getelementptr inbounds nuw i8, ptr %16, i64 18
  store i8 %19, ptr %20, align 2
  %21 = getelementptr inbounds nuw i8, ptr %11, i64 32
  %22 = load ptr, ptr %21, align 8
  %23 = getelementptr inbounds nuw i8, ptr %16, i64 136
  store ptr %22, ptr %23, align 8
  %24 = getelementptr inbounds nuw i8, ptr %11, i64 272
  %25 = load i32, ptr %24, align 8
  %26 = getelementptr inbounds nuw i8, ptr %16, i64 144
  store i32 %25, ptr %26, align 8
  %27 = getelementptr inbounds nuw i8, ptr %11, i64 276
  %28 = load i32, ptr %27, align 4
  %29 = getelementptr inbounds nuw i8, ptr %16, i64 148
  store i32 %28, ptr %29, align 4
  %30 = getelementptr inbounds nuw i8, ptr %11, i64 16
  %31 = load i64, ptr %30, align 8
  %32 = getelementptr inbounds nuw i8, ptr %16, i64 8
  store i64 %31, ptr %32, align 8
  br label %pg_plan_query.exit

33:                                               ; preds = %.lr.ph37
  %34 = load i8, ptr @log_planner_stats, align 1, !range !5, !noundef !6
  %35 = trunc nuw i8 %34 to i1
  br i1 %35, label %36, label %39

36:                                               ; preds = %33
  %37 = tail call i32 @getrusage(i32 noundef 0, ptr noundef nonnull @Save_r) #22
  %38 = tail call i32 @gettimeofday(ptr noundef nonnull @Save_t, ptr noundef null) #22
  br label %39

39:                                               ; preds = %36, %33
  %40 = tail call ptr @planner(ptr noundef nonnull %11, ptr noundef %1, i32 noundef %2, ptr noundef %3) #22
  %41 = load i8, ptr @log_planner_stats, align 1, !range !5, !noundef !6
  %42 = trunc nuw i8 %41 to i1
  br i1 %42, label %43, label %44

43:                                               ; preds = %39
  tail call void @ShowUsage(ptr noundef nonnull @.str.7)
  br label %44

44:                                               ; preds = %43, %39
  %45 = load i8, ptr @Debug_print_plan, align 1, !range !5, !noundef !6
  %46 = trunc nuw i8 %45 to i1
  br i1 %46, label %47, label %pg_plan_query.exit

47:                                               ; preds = %44
  %48 = load i8, ptr @Debug_pretty_print, align 1, !range !5, !noundef !6
  %49 = trunc nuw i8 %48 to i1
  tail call void @elog_node_display(i32 noundef 15, ptr noundef nonnull @.str.8, ptr noundef %40, i1 noundef zeroext %49) #22
  br label %pg_plan_query.exit

pg_plan_query.exit:                               ; preds = %47, %44, %15
  %.0 = phi ptr [ %16, %15 ], [ %40, %44 ], [ %40, %47 ]
  %50 = tail call ptr @lappend(ptr noundef %.0243136, ptr noundef %.0) #22
  %indvars.iv.next = add nuw nsw i64 %indvars.iv35, 1
  %51 = load i32, ptr %5, align 4
  %52 = sext i32 %51 to i64
  %53 = icmp slt i64 %indvars.iv.next, %52
  br i1 %53, label %.lr.ph37, label %._crit_edge
}